target datalayout = "e-m:e-p270:32:32-p271:32:32-p272:64:64-i64:64-i128:128-f80:128-n8:16:32:64-S128"
target triple = "x86_64-pc-linux-gnu"

%struct.archive_read = type { %struct.archive, ptr, i32, i64, i64, %struct.archive_read_client, [16 x %struct.archive_read_filter_bidder], ptr, i32, i64, i32, i32, [16 x %struct.archive_format_descriptor], ptr, ptr, ptr, %struct.anon }
%struct.archive = type { i32, i32, ptr, i32, ptr, i32, i32, ptr, %struct.archive_string, ptr, i32, i32, ptr, ptr, i64, i64, i64, i8, i64 }
%struct.archive_string = type { ptr, i64, i64 }
%struct.archive_read_client = type { ptr, ptr, ptr, ptr, ptr, ptr, i32, i32, i64, ptr }
%struct.archive_read_filter_bidder = type { ptr, ptr, ptr }
%struct.archive_format_descriptor = type { ptr, ptr, ptr, ptr, ptr, ptr, ptr, ptr, ptr, ptr, ptr }
%struct.anon = type { ptr, ptr, i32, ptr, ptr }
%struct.rar5 = type { i32, i32, i32, i32, i64, i64, %struct.generic_header, %struct.main_header, %struct.comp_state, %struct.file_header, %struct.bit_reader, %struct.multivolume, %struct.compressed_block_header, i32, i32 }
%struct.generic_header = type { i8, i32, i32 }
%struct.main_header = type { i8, i32 }
%struct.comp_state = type { i8, i32, i32, i32, i64, ptr, ptr, ptr, i64, i64, i64, i64, i64, i64, i32, %struct.decode_table, %struct.decode_table, %struct.decode_table, %struct.decode_table, %struct.decode_table, %struct.cdeque, i64, i64, [4 x i32], [2 x %struct.data_ready] }
%struct.decode_table = type { i32, [16 x i32], [16 x i32], i32, [1024 x i8], [1024 x i16], [306 x i16] }
%struct.cdeque = type { i16, i16, i16, i16, ptr }
%struct.data_ready = type { i8, ptr, i64, i64 }
%struct.file_header = type { i64, i64, i64, i64, i8, i64, i64, i64, i32, i32, i32, [32 x i8], %struct.blake2sp_state__, i8, i64, i64, i64 }
%struct.blake2sp_state__ = type { [8 x [1 x %struct.blake2s_state__]], [1 x %struct.blake2s_state__], [512 x i8], i64, i64 }
%struct.blake2s_state__ = type { [8 x i32], [2 x i32], [2 x i32], [64 x i8], i64, i64, i8 }
%struct.bit_reader = type { i8, i32 }
%struct.multivolume = type { i32, ptr }
%struct.compressed_block_header = type { i8, i8 }

@.str.53 = private unnamed_addr constant [55 x i8] c"Premature end of stream during extraction of data (#2)\00", align 1

; Function Attrs: nounwind uwtable
define internal void @skip_bits(ptr noundef %0, i32 noundef %1) #0 {
  %3 = alloca ptr, align 8
  %4 = alloca i32, align 4
  %5 = alloca i32, align 4
  store ptr %0, ptr %3, align 8, !tbaa !11
  store i32 %1, ptr %4, align 4, !tbaa !9
  call void @llvm.lifetime.start.p0(i64 4, ptr %5) #11
  %6 = load ptr, ptr %3, align 8, !tbaa !11
  %7 = getelementptr inbounds nuw %struct.rar5, ptr %6, i32 0, i32 10
  %8 = getelementptr inbounds nuw %struct.bit_reader, ptr %7, i32 0, i32 0
  %9 = load i8, ptr %8, align 8, !tbaa !135
  %10 = sext i8 %9 to i32
  %11 = load i32, ptr %4, align 4, !tbaa !9
  %12 = add nsw i32 %10, %11
  store i32 %12, ptr %5, align 4, !tbaa !9
  %13 = load i32, ptr %5, align 4, !tbaa !9
  %14 = ashr i32 %13, 3
  %15 = load ptr, ptr %3, align 8, !tbaa !11
  %16 = getelementptr inbounds nuw %struct.rar5, ptr %15, i32 0, i32 10
  %17 = getelementptr inbounds nuw %struct.bit_reader, ptr %16, i32 0, i32 1
  %18 = load i32, ptr %17, align 4, !tbaa !134
  %19 = add nsw i32 %18, %14
  store i32 %19, ptr %17, align 4, !tbaa !134
  %20 = load i32, ptr %5, align 4, !tbaa !9
  %21 = and i32 %20, 7
  %22 = trunc i32 %21 to i8
  %23 = load ptr, ptr %3, align 8, !tbaa !11
  %24 = getelementptr inbounds nuw %struct.rar5, ptr %23, i32 0, i32 10
  %25 = getelementptr inbounds nuw %struct.bit_reader, ptr %24, i32 0, i32 0
  store i8 %22, ptr %25, align 8, !tbaa !135
  call void @llvm.lifetime.end.p0(i64 4, ptr %5) #11
  ret void
}

; Function Attrs: nounwind uwtable
define internal i32 @read_bits_16(ptr noundef %0, ptr noundef %1, ptr noundef %2, ptr noundef %3) #0 {
  %5 = alloca i32, align 4
  %6 = alloca ptr, align 8
  %7 = alloca ptr, align 8
  %8 = alloca ptr, align 8
  %9 = alloca ptr, align 8
  %10 = alloca i32, align 4
  store ptr %0, ptr %6, align 8, !tbaa !13
  store ptr %1, ptr %7, align 8, !tbaa !11
  store ptr %2, ptr %8, align 8, !tbaa !33
  store ptr %3, ptr %9, align 8, !tbaa !157
  %11 = load ptr, ptr %7, align 8, !tbaa !11
  %12 = getelementptr inbounds nuw %struct.rar5, ptr %11, i32 0, i32 10
  %13 = getelementptr inbounds nuw %struct.bit_reader, ptr %12, i32 0, i32 1
  %14 = load i32, ptr %13, align 4, !tbaa !134
  %15 = sext i32 %14 to i64
  %16 = load ptr, ptr %7, align 8, !tbaa !11
  %17 = getelementptr inbounds nuw %struct.rar5, ptr %16, i32 0, i32 8
  %18 = getelementptr inbounds nuw %struct.comp_state, ptr %17, i32 0, i32 13
  %19 = load i64, ptr %18, align 8, !tbaa !133
  %20 = icmp sge i64 %15, %19
  br i1 %20, label %21, label %24

21:                                               ; preds = %4
  %22 = load ptr, ptr %6, align 8, !tbaa !13
  %23 = getelementptr inbounds nuw %struct.archive_read, ptr %22, i32 0, i32 0
  call void (ptr, i32, ptr, ...) @archive_set_error(ptr noundef %23, i32 noundef 22, ptr noundef @.str.53)
  store i32 -30, ptr %5, align 4
  br label %72

24:                                               ; preds = %4
  call void @llvm.lifetime.start.p0(i64 4, ptr %10) #11
  %25 = load ptr, ptr %8, align 8, !tbaa !33
  %26 = load ptr, ptr %7, align 8, !tbaa !11
  %27 = getelementptr inbounds nuw %struct.rar5, ptr %26, i32 0, i32 10
  %28 = getelementptr inbounds nuw %struct.bit_reader, ptr %27, i32 0, i32 1
  %29 = load i32, ptr %28, align 4, !tbaa !134
  %30 = sext i32 %29 to i64
  %31 = getelementptr inbounds i8, ptr %25, i64 %30
  %32 = load i8, ptr %31, align 1, !tbaa !75
  %33 = zext i8 %32 to i32
  %34 = shl i32 %33, 16
  store i32 %34, ptr %10, align 4, !tbaa !9
  %35 = load ptr, ptr %8, align 8, !tbaa !33
  %36 = load ptr, ptr %7, align 8, !tbaa !11
  %37 = getelementptr inbounds nuw %struct.rar5, ptr %36, i32 0, i32 10
  %38 = getelementptr inbounds nuw %struct.bit_reader, ptr %37, i32 0, i32 1
  %39 = load i32, ptr %38, align 4, !tbaa !134
  %40 = add nsw i32 %39, 1
  %41 = sext i32 %40 to i64
  %42 = getelementptr inbounds i8, ptr %35, i64 %41
  %43 = load i8, ptr %42, align 1, !tbaa !75
  %44 = zext i8 %43 to i32
  %45 = shl i32 %44, 8
  %46 = load i32, ptr %10, align 4, !tbaa !9
  %47 = or i32 %46, %45
  store i32 %47, ptr %10, align 4, !tbaa !9
  %48 = load ptr, ptr %8, align 8, !tbaa !33
  %49 = load ptr, ptr %7, align 8, !tbaa !11
  %50 = getelementptr inbounds nuw %struct.rar5, ptr %49, i32 0, i32 10
  %51 = getelementptr inbounds nuw %struct.bit_reader, ptr %50, i32 0, i32 1
  %52 = load i32, ptr %51, align 4, !tbaa !134
  %53 = add nsw i32 %52, 2
  %54 = sext i32 %53 to i64
  %55 = getelementptr inbounds i8, ptr %48, i64 %54
  %56 = load i8, ptr %55, align 1, !tbaa !75
  %57 = zext i8 %56 to i32
  %58 = load i32, ptr %10, align 4, !tbaa !9
  %59 = or i32 %58, %57
  store i32 %59, ptr %10, align 4, !tbaa !9
  %60 = load ptr, ptr %7, align 8, !tbaa !11
  %61 = getelementptr inbounds nuw %struct.rar5, ptr %60, i32 0, i32 10
  %62 = getelementptr inbounds nuw %struct.bit_reader, ptr %61, i32 0, i32 0
  %63 = load i8, ptr %62, align 8, !tbaa !135
  %64 = sext i8 %63 to i32
  %65 = sub nsw i32 8, %64
  %66 = load i32, ptr %10, align 4, !tbaa !9
  %67 = ashr i32 %66, %65
  store i32 %67, ptr %10, align 4, !tbaa !9
  %68 = load i32, ptr %10, align 4, !tbaa !9
  %69 = and i32 %68, 65535
  %70 = trunc i32 %69 to i16
  %71 = load ptr, ptr %9, align 8, !tbaa !157
  store i16 %70, ptr %71, align 2, !tbaa !143
  store i32 0, ptr %5, align 4
  call void @llvm.lifetime.end.p0(i64 4, ptr %10) #11
  br label %72

72:                                               ; preds = %24, %21
  %73 = load i32, ptr %5, align 4
  ret i32 %73
}

; Function Attrs: nounwind uwtable
define internal i32 @read_consume_bits(ptr noundef %0, ptr noundef %1, ptr noundef %2, i32 noundef %3, ptr noundef %4) #0 {
  %6 = alloca i32, align 4
  %7 = alloca ptr, align 8
  %8 = alloca ptr, align 8
  %9 = alloca ptr, align 8
  %10 = alloca i32, align 4
  %11 = alloca ptr, align 8
  %12 = alloca i16, align 2
  %13 = alloca i32, align 4
  %14 = alloca i32, align 4
  %15 = alloca i32, align 4
  store ptr %0, ptr %7, align 8, !tbaa !13
  store ptr %1, ptr %8, align 8, !tbaa !11
  store ptr %2, ptr %9, align 8, !tbaa !33
  store i32 %3, ptr %10, align 4, !tbaa !9
  store ptr %4, ptr %11, align 8, !tbaa !90
  call void @llvm.lifetime.start.p0(i64 2, ptr %12) #11
  call void @llvm.lifetime.start.p0(i64 4, ptr %13) #11
  call void @llvm.lifetime.start.p0(i64 4, ptr %14) #11
  %16 = load i32, ptr %10, align 4, !tbaa !9
  %17 = icmp eq i32 %16, 0
  br i1 %17, label %21, label %18

18:                                               ; preds = %5
  %19 = load i32, ptr %10, align 4, !tbaa !9
  %20 = icmp sgt i32 %19, 16
  br i1 %20, label %21, label %22

21:                                               ; preds = %18, %5
  store i32 -30, ptr %6, align 4
  store i32 1, ptr %15, align 4
  br label %46

22:                                               ; preds = %18
  %23 = load ptr, ptr %7, align 8, !tbaa !13
  %24 = load ptr, ptr %8, align 8, !tbaa !11
  %25 = load ptr, ptr %9, align 8, !tbaa !33
  %26 = call i32 @read_bits_16(ptr noundef %23, ptr noundef %24, ptr noundef %25, ptr noundef %12)
  store i32 %26, ptr %13, align 4, !tbaa !9
  %27 = load i32, ptr %13, align 4, !tbaa !9
  %28 = icmp ne i32 %27, 0
  br i1 %28, label %29, label %31

29:                                               ; preds = %22
  %30 = load i32, ptr %13, align 4, !tbaa !9
  store i32 %30, ptr %6, align 4
  store i32 1, ptr %15, align 4
  br label %46

31:                                               ; preds = %22
  %32 = load i16, ptr %12, align 2, !tbaa !143
  %33 = zext i16 %32 to i32
  store i32 %33, ptr %14, align 4, !tbaa !9
  %34 = load i32, ptr %10, align 4, !tbaa !9
  %35 = sub nsw i32 16, %34
  %36 = load i32, ptr %14, align 4, !tbaa !9
  %37 = ashr i32 %36, %35
  store i32 %37, ptr %14, align 4, !tbaa !9
  %38 = load ptr, ptr %8, align 8, !tbaa !11
  %39 = load i32, ptr %10, align 4, !tbaa !9
  call void @skip_bits(ptr noundef %38, i32 noundef %39)
  %40 = load ptr, ptr %11, align 8, !tbaa !90
  %41 = icmp ne ptr %40, null
  br i1 %41, label %42, label %45

42:                                               ; preds = %31
  %43 = load i32, ptr %14, align 4, !tbaa !9
  %44 = load ptr, ptr %11, align 8, !tbaa !90
  store i32 %43, ptr %44, align 4, !tbaa !9
  br label %45

45:                                               ; preds = %42, %31
  store i32 0, ptr %6, align 4
  store i32 1, ptr %15, align 4
  br label %46

46:                                               ; preds = %45, %29, %21
  call void @llvm.lifetime.end.p0(i64 4, ptr %14) #11
  call void @llvm.lifetime.end.p0(i64 4, ptr %13) #11
  call void @llvm.lifetime.end.p0(i64 2, ptr %12) #11
  %47 = load i32, ptr %6, align 4
  ret i32 %47
}

; Function Attrs: nounwind uwtable
define internal i32 @parse_filter_data(ptr noundef %0, ptr noundef %1, ptr noundef %2, ptr noundef %3) #0 {
  %5 = alloca i32, align 4
  %6 = alloca ptr, align 8
  %7 = alloca ptr, align 8
  %8 = alloca ptr, align 8
  %9 = alloca ptr, align 8
  %10 = alloca i32, align 4
  %11 = alloca i32, align 4
  %12 = alloca i32, align 4
  %13 = alloca i32, align 4
  %14 = alloca i32, align 4
  %15 = alloca i16, align 2
  store ptr %0, ptr %6, align 8, !tbaa !13
  store ptr %1, ptr %7, align 8, !tbaa !11
  store ptr %2, ptr %8, align 8, !tbaa !33
  store ptr %3, ptr %9, align 8, !tbaa !90
  call void @llvm.lifetime.start.p0(i64 4, ptr %10) #11
  call void @llvm.lifetime.start.p0(i64 4, ptr %11) #11
  call void @llvm.lifetime.start.p0(i64 4, ptr %12) #11
  call void @llvm.lifetime.start.p0(i64 4, ptr %13) #11
  store i32 0, ptr %13, align 4, !tbaa !9
  %16 = load ptr, ptr %6, align 8, !tbaa !13
  %17 = load ptr, ptr %7, align 8, !tbaa !11
  %18 = load ptr, ptr %8, align 8, !tbaa !33
  %19 = call i32 @read_consume_bits(ptr noundef %16, ptr noundef %17, ptr noundef %18, i32 noundef 2, ptr noundef %11)
  store i32 %19, ptr %12, align 4, !tbaa !9
  %20 = icmp ne i32 0, %19
  br i1 %20, label %21, label %23

21:                                               ; preds = %4
  %22 = load i32, ptr %12, align 4, !tbaa !9
  store i32 %22, ptr %5, align 4
  store i32 1, ptr %14, align 4
  br label %57

23:                                               ; preds = %4
  %24 = load i32, ptr %11, align 4, !tbaa !9
  %25 = add nsw i32 %24, 1
  store i32 %25, ptr %11, align 4, !tbaa !9
  store i32 0, ptr %10, align 4, !tbaa !9
  br label %26

26:                                               ; preds = %51, %23
  %27 = load i32, ptr %10, align 4, !tbaa !9
  %28 = load i32, ptr %11, align 4, !tbaa !9
  %29 = icmp slt i32 %27, %28
  br i1 %29, label %30, label %54

30:                                               ; preds = %26
  call void @llvm.lifetime.start.p0(i64 2, ptr %15) #11
  %31 = load ptr, ptr %6, align 8, !tbaa !13
  %32 = load ptr, ptr %7, align 8, !tbaa !11
  %33 = load ptr, ptr %8, align 8, !tbaa !33
  %34 = call i32 @read_bits_16(ptr noundef %31, ptr noundef %32, ptr noundef %33, ptr noundef %15)
  store i32 %34, ptr %12, align 4, !tbaa !9
  %35 = icmp ne i32 0, %34
  br i1 %35, label %36, label %38

36:                                               ; preds = %30
  %37 = load i32, ptr %12, align 4, !tbaa !9
  store i32 %37, ptr %5, align 4
  store i32 1, ptr %14, align 4
  br label %48

38:                                               ; preds = %30
  %39 = load i16, ptr %15, align 2, !tbaa !143
  %40 = zext i16 %39 to i32
  %41 = lshr i32 %40, 8
  %42 = load i32, ptr %10, align 4, !tbaa !9
  %43 = mul nsw i32 %42, 8
  %44 = shl i32 %41, %43
  %45 = load i32, ptr %13, align 4, !tbaa !9
  %46 = add i32 %45, %44
  store i32 %46, ptr %13, align 4, !tbaa !9
  %47 = load ptr, ptr %7, align 8, !tbaa !11
  call void @skip_bits(ptr noundef %47, i32 noundef 8)
  store i32 0, ptr %14, align 4
  br label %48

48:                                               ; preds = %38, %36
  call void @llvm.lifetime.end.p0(i64 2, ptr %15) #11
  %49 = load i32, ptr %14, align 4
  switch i32 %49, label %57 [
    i32 0, label %50
  ]

50:                                               ; preds = %48
  br label %51

51:                                               ; preds = %50
  %52 = load i32, ptr %10, align 4, !tbaa !9
  %53 = add nsw i32 %52, 1
  store i32 %53, ptr %10, align 4, !tbaa !9
  br label %26, !llvm.loop !164

54:                                               ; preds = %26
  %55 = load i32, ptr %13, align 4, !tbaa !9
  %56 = load ptr, ptr %9, align 8, !tbaa !90
  store i32 %55, ptr %56, align 4, !tbaa !9
  store i32 0, ptr %5, align 4
  store i32 1, ptr %14, align 4
  br label %57

57:                                               ; preds = %54, %48, %21
  call void @llvm.lifetime.end.p0(i64 4, ptr %13) #11
  call void @llvm.lifetime.end.p0(i64 4, ptr %12) #11
  call void @llvm.lifetime.end.p0(i64 4, ptr %11) #11
  call void @llvm.lifetime.end.p0(i64 4, ptr %10) #11
  %58 = load i32, ptr %5, align 4
  ret i32 %58
}