; Function Attrs: nounwind uwtable
define internal fastcc range(i32 -30, 1) i32 @parse_filter_data(ptr noundef %0, ptr noundef captures(none) %1, ptr noundef readonly captures(none) %2, ptr noundef nonnull writeonly captures(none) %3) unnamed_addr #0 {
  %5 = getelementptr inbounds nuw i8, ptr %1, i64 21268
  %6 = load i32, ptr %5, align 4, !tbaa !104
  %7 = sext i32 %6 to i64
  %8 = getelementptr inbounds nuw i8, ptr %1, i64 144
  %9 = load i64, ptr %8, align 8, !tbaa !103
  %.not.i.i = icmp sgt i64 %9, %7
  br i1 %.not.i.i, label %10, label %read_consume_bits.exit

read_consume_bits.exit:                           ; preds = %4
  tail call void (ptr, i32, ptr, ...) @archive_set_error(ptr noundef %0, i32 noundef 22, ptr noundef nonnull @.str.53) #15
  br label %64

10:                                               ; preds = %4
  %11 = getelementptr inbounds nuw i8, ptr %1, i64 21264
  %12 = getelementptr inbounds i8, ptr %2, i64 %7
  %13 = load i8, ptr %12, align 1, !tbaa !26
  %14 = zext i8 %13 to i32
  %15 = shl nuw nsw i32 %14, 16
  %16 = getelementptr i8, ptr %12, i64 1
  %17 = load i8, ptr %16, align 1, !tbaa !26
  %18 = zext i8 %17 to i32
  %19 = shl nuw nsw i32 %18, 8
  %20 = or disjoint i32 %19, %15
  %21 = getelementptr i8, ptr %12, i64 2
  %22 = load i8, ptr %21, align 1, !tbaa !26
  %23 = zext i8 %22 to i32
  %24 = or disjoint i32 %20, %23
  %25 = load i8, ptr %11, align 8, !tbaa !105
  %26 = sext i8 %25 to i32
  %27 = sub nsw i32 8, %26
  %28 = lshr i32 %24, %27
  %29 = add nsw i32 %26, 2
  %30 = ashr i32 %29, 3
  %31 = add nsw i32 %30, %6
  store i32 %31, ptr %5, align 4, !tbaa !104
  %32 = trunc i32 %29 to i8
  %33 = and i8 %32, 7
  store i8 %33, ptr %11, align 8, !tbaa !105
  %34 = lshr i32 %28, 14
  %35 = and i32 %34, 3
  %narrow = sub nuw nsw i8 8, %33
  %36 = zext nneg i8 %narrow to i32
  br label %37

37:                                               ; preds = %10, %41
  %.01648 = phi i32 [ 0, %10 ], [ %60, %41 ]
  %.01747 = phi i32 [ 0, %10 ], [ %62, %41 ]
  %38 = phi i32 [ %31, %10 ], [ %61, %41 ]
  %39 = sext i32 %38 to i64
  %.not.i = icmp sgt i64 %9, %39
  br i1 %.not.i, label %41, label %40

40:                                               ; preds = %37
  tail call void (ptr, i32, ptr, ...) @archive_set_error(ptr noundef %0, i32 noundef 22, ptr noundef nonnull @.str.53) #15
  br label %64

41:                                               ; preds = %37
  %42 = getelementptr inbounds i8, ptr %2, i64 %39
  %43 = load i8, ptr %42, align 1, !tbaa !26
  %44 = zext i8 %43 to i32
  %45 = shl nuw nsw i32 %44, 16
  %46 = getelementptr i8, ptr %42, i64 1
  %47 = load i8, ptr %46, align 1, !tbaa !26
  %48 = zext i8 %47 to i32
  %49 = shl nuw nsw i32 %48, 8
  %50 = or disjoint i32 %49, %45
  %51 = getelementptr i8, ptr %42, i64 2
  %52 = load i8, ptr %51, align 1, !tbaa !26
  %53 = zext i8 %52 to i32
  %54 = or disjoint i32 %50, %53
  %55 = lshr i32 %54, %36
  %56 = lshr i32 %55, 8
  %57 = and i32 %56, 255
  %58 = shl nsw i32 %.01747, 3
  %59 = shl i32 %57, %58
  %60 = add i32 %59, %.01648
  %61 = add nsw i32 %38, 1
  store i32 %61, ptr %5, align 4, !tbaa !104
  store i8 %33, ptr %11, align 8, !tbaa !105
  %62 = add nuw nsw i32 %.01747, 1
  %exitcond.not = icmp eq i32 %.01747, %35
  br i1 %exitcond.not, label %63, label %37, !llvm.loop !132

63:                                               ; preds = %41
  store i32 %60, ptr %3, align 4, !tbaa !82
  br label %64

64:                                               ; preds = %40, %read_consume_bits.exit, %63
  %.018 = phi i32 [ -30, %40 ], [ 0, %63 ], [ -30, %read_consume_bits.exit ]
  ret i32 %.018
}